(dp0
V3
p1
ccopy_reg
_reconstructor
p2
(c__main__
Guestbook
p3
c__builtin__
object
p4
Ntp5
Rp6
(dp7
S'index'
p8
I-1
sS'guestbook_id'
p9
g1
sS'entries'
p10
(lp11
g2
(c__main__
Entry
p12
g4
Ntp13
Rp14
(dp15
S'comment'
p16
Vgirl
p17
sS'date'
p18
S'Sun Nov 20 14:24:08 2016'
p19
sS'name'
p20
Visabella
p21
sbasbsV4
p22
g2
(g3
g4
Ntp23
Rp24
(dp25
g8
I-1
sg9
V4
p26
sg10
(lp27
g2
(g12
g4
Ntp28
Rp29
(dp30
g16
Vdaddy
p31
sg18
S'Sun Nov 20 14:23:14 2016'
p32
sg20
VJohn
p33
sbag2
(g12
g4
Ntp34
Rp35
(dp36
g16
Vmomy
p37
sg18
S'Sun Nov 20 14:23:25 2016'
p38
sg20
Vcarol
p39
sbag2
(g12
g4
Ntp40
Rp41
(dp42
g16
Vboy
p43
sg18
S'Sun Nov 20 14:23:39 2016'
p44
sg20
Vkevin
p45
sbasbs.